target datalayout = "e-m:e-p270:32:32-p271:32:32-p272:64:64-i64:64-i128:128-f80:128-n8:16:32:64-S128"
target triple = "x86_64-pc-linux-gnu"

%"class.base::File" = type <{ %"class.base::ScopedGeneric", [4 x i8], %"class.base::FilePath", [4 x i8], i32, i8, i8, [6 x i8] }>
%"class.base::ScopedGeneric" = type { %"struct.base::ScopedGeneric<int, base::internal::ScopedFDCloseTraits>::Data" }
%"struct.base::ScopedGeneric<int, base::internal::ScopedFDCloseTraits>::Data" = type { i32 }
%"class.base::FilePath" = type { %"class.std::__cxx11::basic_string" }
%"class.std::__cxx11::basic_string" = type { %"struct.std::__cxx11::basic_string<char>::_Alloc_hider", i64, %union.anon }
%"struct.std::__cxx11::basic_string<char>::_Alloc_hider" = type { ptr }
%union.anon = type { i64, [8 x i8] }
%"class.base::FileTracing::ScopedTrace" = type { ptr, ptr }

@.str.2 = private unnamed_addr constant [11 x i8] c"File::Read\00", align 1

; Function Attrs: mustprogress nounwind uwtable
define linkonce_odr noundef nonnull align 4 dereferenceable(4) ptr @_ZNK4base13ScopedGenericIiNS_8internal19ScopedFDCloseTraitsEE3getEv(ptr noundef nonnull align 4 dereferenceable(4) %0) #4 comdat align 2 {
  %2 = alloca ptr, align 8
  store ptr %0, ptr %2, align 8, !tbaa !36
  %3 = load ptr, ptr %2, align 8
  %4 = getelementptr inbounds nuw %"class.base::ScopedGeneric", ptr %3, i32 0, i32 0
  %5 = getelementptr inbounds nuw %"struct.base::ScopedGeneric<int, base::internal::ScopedFDCloseTraits>::Data", ptr %4, i32 0, i32 0
  ret ptr %5
}

; Function Attrs: mustprogress nounwind uwtable
define linkonce_odr void @_ZN4base18ThreadRestrictions15AssertIOAllowedEv() #4 comdat align 2 {
  ret void
}

; Function Attrs: mustprogress uwtable
define noundef i32 @_ZN4base4File4ReadElPci(ptr noundef nonnull align 8 dereferenceable(50) %0, i64 noundef %1, ptr noundef %2, i32 noundef %3) #0 align 2 personality ptr @__gxx_personality_v0 {
  %5 = alloca i32, align 4
  %6 = alloca ptr, align 8
  %7 = alloca i64, align 8
  %8 = alloca ptr, align 8
  %9 = alloca i32, align 4
  %10 = alloca %"class.base::FileTracing::ScopedTrace", align 8
  %11 = alloca ptr, align 8
  %12 = alloca i32, align 4
  %13 = alloca i32, align 4
  %14 = alloca i32, align 4
  %15 = alloca i64, align 8
  %16 = alloca i64, align 8
  store ptr %0, ptr %6, align 8, !tbaa !34
  store i64 %1, ptr %7, align 8, !tbaa !24
  store ptr %2, ptr %8, align 8, !tbaa !46
  store i32 %3, ptr %9, align 4, !tbaa !41
  %17 = load ptr, ptr %6, align 8
  call void @_ZN4base18ThreadRestrictions15AssertIOAllowedEv()
  %18 = load i32, ptr %9, align 4, !tbaa !41
  %19 = icmp slt i32 %18, 0
  br i1 %19, label %20, label %21

20:                                               ; preds = %4
  store i32 -1, ptr %5, align 4
  br label %91

21:                                               ; preds = %4
  call void @llvm.lifetime.start.p0(i64 16, ptr %10) #14
  call void @_ZN4base11FileTracing11ScopedTraceC1Ev(ptr noundef nonnull align 8 dereferenceable(16) %10)
  %22 = invoke noundef zeroext i1 @_ZN4base11FileTracing17IsCategoryEnabledEv()
          to label %23 unwind label %28

23:                                               ; preds = %21
  br i1 %22, label %24, label %32

24:                                               ; preds = %23
  %25 = load i32, ptr %9, align 4, !tbaa !41
  %26 = sext i32 %25 to i64
  invoke void @_ZN4base11FileTracing11ScopedTrace10InitializeEPKcPKNS_4FileEl(ptr noundef nonnull align 8 dereferenceable(16) %10, ptr noundef @.str.2, ptr noundef %17, i64 noundef %26)
          to label %27 unwind label %28

27:                                               ; preds = %24
  br label %32

28:                                               ; preds = %24, %21
  %29 = landingpad { ptr, i32 }
          cleanup
  %30 = extractvalue { ptr, i32 } %29, 0
  store ptr %30, ptr %11, align 8
  %31 = extractvalue { ptr, i32 } %29, 1
  store i32 %31, ptr %12, align 4
  br label %90

32:                                               ; preds = %27, %23
  call void @llvm.lifetime.start.p0(i64 4, ptr %13) #14
  store i32 0, ptr %13, align 4, !tbaa !41
  call void @llvm.lifetime.start.p0(i64 4, ptr %14) #14
  br label %33

33:                                               ; preds = %77, %32
  call void @llvm.lifetime.start.p0(i64 8, ptr %15) #14
  br label %34

34:                                               ; preds = %60, %33
  %35 = getelementptr inbounds nuw %"class.base::File", ptr %17, i32 0, i32 0
  %36 = invoke noundef nonnull align 4 dereferenceable(4) ptr @_ZNK4base13ScopedGenericIiNS_8internal19ScopedFDCloseTraitsEE3getEv(ptr noundef nonnull align 4 dereferenceable(4) %35)
          to label %37 unwind label %69

37:                                               ; preds = %34
  %38 = load i32, ptr %36, align 4, !tbaa !41
  %39 = load ptr, ptr %8, align 8, !tbaa !46
  %40 = load i32, ptr %13, align 4, !tbaa !41
  %41 = sext i32 %40 to i64
  %42 = getelementptr inbounds i8, ptr %39, i64 %41
  %43 = load i32, ptr %9, align 4, !tbaa !41
  %44 = load i32, ptr %13, align 4, !tbaa !41
  %45 = sub nsw i32 %43, %44
  %46 = sext i32 %45 to i64
  %47 = load i64, ptr %7, align 8, !tbaa !24
  %48 = load i32, ptr %13, align 4, !tbaa !41
  %49 = sext i32 %48 to i64
  %50 = add nsw i64 %47, %49
  %51 = invoke i64 @pread(i32 noundef %38, ptr noundef %42, i64 noundef %46, i64 noundef %50)
          to label %52 unwind label %69

52:                                               ; preds = %37
  store i64 %51, ptr %15, align 8, !tbaa !24
  br label %53

53:                                               ; preds = %52
  %54 = load i64, ptr %15, align 8, !tbaa !24
  %55 = icmp eq i64 %54, -1
  br i1 %55, label %56, label %60

56:                                               ; preds = %53
  %57 = call ptr @__errno_location() #16
  %58 = load i32, ptr %57, align 4, !tbaa !41
  %59 = icmp eq i32 %58, 4
  br label %60

60:                                               ; preds = %56, %53
  %61 = phi i1 [ false, %53 ], [ %59, %56 ]
  br i1 %61, label %34, label %62, !llvm.loop !48

62:                                               ; preds = %60
  %63 = load i64, ptr %15, align 8, !tbaa !24
  store i64 %63, ptr %16, align 8, !tbaa !24
  call void @llvm.lifetime.end.p0(i64 8, ptr %15) #14
  %64 = load i64, ptr %16, align 8, !tbaa !24
  %65 = trunc i64 %64 to i32
  store i32 %65, ptr %14, align 4, !tbaa !41
  %66 = load i32, ptr %14, align 4, !tbaa !41
  %67 = icmp sle i32 %66, 0
  br i1 %67, label %68, label %73

68:                                               ; preds = %62
  br label %81

69:                                               ; preds = %37, %34
  %70 = landingpad { ptr, i32 }
          cleanup
  %71 = extractvalue { ptr, i32 } %70, 0
  store ptr %71, ptr %11, align 8
  %72 = extractvalue { ptr, i32 } %70, 1
  store i32 %72, ptr %12, align 4
  call void @llvm.lifetime.end.p0(i64 8, ptr %15) #14
  call void @llvm.lifetime.end.p0(i64 4, ptr %14) #14
  call void @llvm.lifetime.end.p0(i64 4, ptr %13) #14
  br label %90

73:                                               ; preds = %62
  %74 = load i32, ptr %14, align 4, !tbaa !41
  %75 = load i32, ptr %13, align 4, !tbaa !41
  %76 = add nsw i32 %75, %74
  store i32 %76, ptr %13, align 4, !tbaa !41
  br label %77

77:                                               ; preds = %73
  %78 = load i32, ptr %13, align 4, !tbaa !41
  %79 = load i32, ptr %9, align 4, !tbaa !41
  %80 = icmp slt i32 %78, %79
  br i1 %80, label %33, label %81, !llvm.loop !50

81:                                               ; preds = %77, %68
  %82 = load i32, ptr %13, align 4, !tbaa !41
  %83 = icmp ne i32 %82, 0
  br i1 %83, label %84, label %86

84:                                               ; preds = %81
  %85 = load i32, ptr %13, align 4, !tbaa !41
  br label %88

86:                                               ; preds = %81
  %87 = load i32, ptr %14, align 4, !tbaa !41
  br label %88

88:                                               ; preds = %86, %84
  %89 = phi i32 [ %85, %84 ], [ %87, %86 ]
  store i32 %89, ptr %5, align 4
  call void @llvm.lifetime.end.p0(i64 4, ptr %14) #14
  call void @llvm.lifetime.end.p0(i64 4, ptr %13) #14
  call void @_ZN4base11FileTracing11ScopedTraceD1Ev(ptr noundef nonnull align 8 dereferenceable(16) %10) #14
  call void @llvm.lifetime.end.p0(i64 16, ptr %10) #14
  br label %91

90:                                               ; preds = %69, %28
  call void @_ZN4base11FileTracing11ScopedTraceD1Ev(ptr noundef nonnull align 8 dereferenceable(16) %10) #14
  call void @llvm.lifetime.end.p0(i64 16, ptr %10) #14
  br label %93

91:                                               ; preds = %88, %20
  %92 = load i32, ptr %5, align 4
  ret i32 %92

93:                                               ; preds = %90
  %94 = load ptr, ptr %11, align 8
  %95 = load i32, ptr %12, align 4
  %96 = insertvalue { ptr, i32 } poison, ptr %94, 0
  %97 = insertvalue { ptr, i32 } %96, i32 %95, 1
  resume { ptr, i32 } %97
}