; Function Attrs: mustprogress uwtable
define noundef i32 @_ZN4base4File4ReadElPci(ptr noundef nonnull align 8 dereferenceable(50) %0, i64 noundef %1, ptr noundef captures(none) %2, i32 noundef %3) local_unnamed_addr #0 align 2 personality ptr @__gxx_personality_v0 {
  %5 = alloca %"class.base::FileTracing::ScopedTrace", align 8
  %6 = icmp slt i32 %3, 0
  br i1 %6, label %39, label %7

7:                                                ; preds = %4
  call void @llvm.lifetime.start.p0(i64 16, ptr nonnull %5) #14
  call void @_ZN4base11FileTracing11ScopedTraceC1Ev(ptr noundef nonnull align 8 dereferenceable(16) %5)
  %8 = invoke noundef zeroext i1 @_ZN4base11FileTracing17IsCategoryEnabledEv()
          to label %9 unwind label %12

9:                                                ; preds = %7
  br i1 %8, label %10, label %.preheader

.preheader:                                       ; preds = %10, %9
  br label %14

10:                                               ; preds = %9
  %11 = zext nneg i32 %3 to i64
  invoke void @_ZN4base11FileTracing11ScopedTrace10InitializeEPKcPKNS_4FileEl(ptr noundef nonnull align 8 dereferenceable(16) %5, ptr noundef nonnull @.str.2, ptr noundef nonnull %0, i64 noundef %11)
          to label %.preheader unwind label %12

12:                                               ; preds = %10, %7
  %13 = landingpad { ptr, i32 }
          cleanup
  br label %38

14:                                               ; preds = %.preheader, %33
  %.024 = phi i32 [ %34, %33 ], [ 0, %.preheader ]
  %15 = zext nneg i32 %.024 to i64
  %16 = getelementptr inbounds nuw i8, ptr %2, i64 %15
  %17 = sub nsw i32 %3, %.024
  %18 = sext i32 %17 to i64
  %19 = add nsw i64 %1, %15
  br label %20

20:                                               ; preds = %25, %14
  %21 = load i32, ptr %0, align 8, !tbaa !27
  %22 = invoke i64 @pread(i32 noundef %21, ptr noundef %16, i64 noundef %18, i64 noundef %19)
          to label %23 unwind label %31

23:                                               ; preds = %20
  %24 = icmp eq i64 %22, -1
  br i1 %24, label %25, label %.critedge

25:                                               ; preds = %23
  %26 = tail call ptr @__errno_location() #15
  %27 = load i32, ptr %26, align 4, !tbaa !27
  %28 = icmp eq i32 %27, 4
  br i1 %28, label %20, label %.critedge.thread, !llvm.loop !28

.critedge:                                        ; preds = %23
  %29 = trunc i64 %22 to i32
  %30 = icmp slt i32 %29, 1
  br i1 %30, label %.critedge.thread, label %33

31:                                               ; preds = %20
  %32 = landingpad { ptr, i32 }
          cleanup
  br label %38

33:                                               ; preds = %.critedge
  %34 = add nuw nsw i32 %.024, %29
  %35 = icmp slt i32 %34, %3
  br i1 %35, label %14, label %.critedge.thread, !llvm.loop !30

.critedge.thread:                                 ; preds = %.critedge, %33, %25
  %36 = phi i32 [ -1, %25 ], [ %29, %33 ], [ %29, %.critedge ]
  %.1 = phi i32 [ %.024, %25 ], [ %.024, %.critedge ], [ %34, %33 ]
  %.not = icmp eq i32 %.1, 0
  %37 = select i1 %.not, i32 %36, i32 %.1
  call void @_ZN4base11FileTracing11ScopedTraceD1Ev(ptr noundef nonnull align 8 dereferenceable(16) %5) #14
  call void @llvm.lifetime.end.p0(i64 16, ptr nonnull %5) #14
  br label %39

38:                                               ; preds = %31, %12
  %.pn = phi { ptr, i32 } [ %32, %31 ], [ %13, %12 ]
  call void @_ZN4base11FileTracing11ScopedTraceD1Ev(ptr noundef nonnull align 8 dereferenceable(16) %5) #14
  call void @llvm.lifetime.end.p0(i64 16, ptr nonnull %5) #14
  resume { ptr, i32 } %.pn

39:                                               ; preds = %4, %.critedge.thread
  %.0 = phi i32 [ %37, %.critedge.thread ], [ -1, %4 ]
  ret i32 %.0
}